target datalayout = "e-m:e-p270:32:32-p271:32:32-p272:64:64-i64:64-i128:128-f80:128-n8:16:32:64-S128"
target triple = "x86_64-pc-linux-gnu"

%struct._zval_struct = type { %union._zend_value, %union.anon, %union.anon.2 }
%union._zend_value = type { i64 }
%union.anon = type { i32 }
%union.anon.2 = type { i32 }
%struct._zend_executor_globals = type { %struct._zval_struct, %struct._zval_struct, [32 x ptr], ptr, ptr, %struct._zend_array, %struct._zend_array, ptr, i32, i32, ptr, ptr, ptr, ptr, ptr, ptr, i64, ptr, ptr, i32, i32, i64, i32, i32, i32, i8, i8, %struct.zend_atomic_bool_s, %struct.zend_atomic_bool_s, ptr, i64, ptr, ptr, %struct._zend_array, %struct._zend_array, i32, i8, %struct._zval_struct, %struct._zval_struct, %struct._zend_stack, %struct._zend_stack, %struct._zend_stack, ptr, i32, i32, i64, ptr, ptr, ptr, %struct._zend_objects_store, ptr, ptr, ptr, [3 x %struct._zend_op], ptr, i8, i8, i64, i32, i32, ptr, [16 x %struct._HashTableIterator], ptr, %union._zend_function, %struct._zend_op, %struct._zend_array, i64, %struct.zend_get_gc_buffer, ptr, ptr, ptr, i64, i8, i32, ptr, ptr, i64, %struct._zend_call_stack, i64, i64, [6 x ptr] }
%struct.zend_atomic_bool_s = type { i8 }
%struct._zend_stack = type { i32, i32, i32, ptr }
%struct._zend_objects_store = type { ptr, i32, i32, i32 }
%struct._HashTableIterator = type { ptr, i32, i32 }
%union._zend_function = type { %struct._zend_op_array }
%struct._zend_op_array = type { i8, [3 x i8], i32, ptr, ptr, ptr, i32, i32, ptr, ptr, ptr, ptr, i32, i32, i32, i32, ptr, ptr, ptr, ptr, ptr, i32, i32, ptr, ptr, ptr, i32, i32, i32, i32, ptr, ptr, [6 x ptr] }
%struct._zend_op = type { ptr, %union._znode_op, %union._znode_op, %union._znode_op, i32, i32, i8, i8, i8, i8 }
%union._znode_op = type { i32 }
%struct._zend_array = type { %struct._zend_refcounted_h, %union.anon.4, i32, %union.anon.6, i32, i32, i32, i32, i64, ptr }
%struct._zend_refcounted_h = type { i32, %union.anon.3 }
%union.anon.3 = type { i32 }
%union.anon.4 = type { i32 }
%union.anon.6 = type { ptr }
%struct.zend_get_gc_buffer = type { ptr, ptr, ptr }
%struct._zend_call_stack = type { ptr, i64 }
%struct._zend_execute_data = type { ptr, ptr, ptr, ptr, %struct._zval_struct, ptr, ptr, ptr, ptr }
%struct._zend_string = type { %struct._zend_refcounted_h, i64, i64, [1 x i8] }

@executor_globals = external global %struct._zend_executor_globals, align 8
@.str.3 = private unnamed_addr constant [17 x i8] c"[no active file]\00", align 1

; Function Attrs: nounwind uwtable
define ptr @zend_get_executed_filename_ex() #0 {
  %1 = alloca ptr, align 8
  %2 = alloca ptr, align 8
  %3 = alloca ptr, align 8
  %4 = load ptr, ptr getelementptr inbounds (%struct._zend_executor_globals, ptr @executor_globals, i32 0, i32 75), align 8
  store ptr %4, ptr %2, align 8
  %5 = load ptr, ptr %2, align 8
  %6 = icmp ne ptr %5, null
  br i1 %6, label %7, label %9

7:                                                ; preds = %0
  %8 = load ptr, ptr %2, align 8
  store ptr %8, ptr %1, align 8
  br label %45

9:                                                ; preds = %0
  %10 = load ptr, ptr getelementptr inbounds (%struct._zend_executor_globals, ptr @executor_globals, i32 0, i32 17), align 8
  store ptr %10, ptr %3, align 8
  br label %11

11:                                               ; preds = %31, %9
  %12 = load ptr, ptr %3, align 8
  %13 = icmp ne ptr %12, null
  br i1 %13, label %14, label %29

14:                                               ; preds = %11
  %15 = load ptr, ptr %3, align 8
  %16 = getelementptr inbounds %struct._zend_execute_data, ptr %15, i32 0, i32 3
  %17 = load ptr, ptr %16, align 8
  %18 = icmp ne ptr %17, null
  br i1 %18, label %19, label %27

19:                                               ; preds = %14
  %20 = load ptr, ptr %3, align 8
  %21 = getelementptr inbounds %struct._zend_execute_data, ptr %20, i32 0, i32 3
  %22 = load ptr, ptr %21, align 8
  %23 = load i8, ptr %22, align 8
  %24 = zext i8 %23 to i32
  %25 = icmp ne i32 %24, 1
  %26 = xor i1 %25, true
  br label %27

27:                                               ; preds = %19, %14
  %28 = phi i1 [ true, %14 ], [ %26, %19 ]
  br label %29

29:                                               ; preds = %27, %11
  %30 = phi i1 [ false, %11 ], [ %28, %27 ]
  br i1 %30, label %31, label %35

31:                                               ; preds = %29
  %32 = load ptr, ptr %3, align 8
  %33 = getelementptr inbounds %struct._zend_execute_data, ptr %32, i32 0, i32 5
  %34 = load ptr, ptr %33, align 8
  store ptr %34, ptr %3, align 8
  br label %11

35:                                               ; preds = %29
  %36 = load ptr, ptr %3, align 8
  %37 = icmp ne ptr %36, null
  br i1 %37, label %38, label %44

38:                                               ; preds = %35
  %39 = load ptr, ptr %3, align 8
  %40 = getelementptr inbounds %struct._zend_execute_data, ptr %39, i32 0, i32 3
  %41 = load ptr, ptr %40, align 8
  %42 = getelementptr inbounds %struct._zend_op_array, ptr %41, i32 0, i32 25
  %43 = load ptr, ptr %42, align 8
  store ptr %43, ptr %1, align 8
  br label %45

44:                                               ; preds = %35
  store ptr null, ptr %1, align 8
  br label %45

45:                                               ; preds = %44, %38, %7
  %46 = load ptr, ptr %1, align 8
  ret ptr %46
}

; Function Attrs: nounwind uwtable
define ptr @zend_get_executed_filename() #0 {
  %1 = alloca ptr, align 8
  %2 = call ptr @zend_get_executed_filename_ex()
  store ptr %2, ptr %1, align 8
  %3 = load ptr, ptr %1, align 8
  %4 = icmp ne ptr %3, null
  br i1 %4, label %5, label %9

5:                                                ; preds = %0
  %6 = load ptr, ptr %1, align 8
  %7 = getelementptr inbounds %struct._zend_string, ptr %6, i32 0, i32 3
  %8 = getelementptr inbounds [1 x i8], ptr %7, i64 0, i64 0
  br label %10

9:                                                ; preds = %0
  br label %10

10:                                               ; preds = %9, %5
  %11 = phi ptr [ %8, %5 ], [ @.str.3, %9 ]
  ret ptr %11
}