; Function Attrs: nofree norecurse nosync nounwind memory(read, inaccessiblemem: none) uwtable
define nonnull ptr @zend_get_executed_filename() local_unnamed_addr #8 {
  %1 = load ptr, ptr getelementptr inbounds (%struct._zend_executor_globals, ptr @executor_globals, i64 0, i32 75), align 8
  %.not.i = icmp eq ptr %1, null
  br i1 %.not.i, label %.preheader.i, label %zend_get_executed_filename_ex.exit

.preheader.i:                                     ; preds = %0
  %.018.i = load ptr, ptr getelementptr inbounds (%struct._zend_executor_globals, ptr @executor_globals, i64 0, i32 17), align 8
  %.not1419.i = icmp eq ptr %.018.i, null
  br i1 %.not1419.i, label %zend_get_executed_filename_ex.exit, label %.lr.ph.i

.lr.ph.i:                                         ; preds = %.preheader.i, %.critedge2.i
  %.020.i = phi ptr [ %.0.i, %.critedge2.i ], [ %.018.i, %.preheader.i ]
  %2 = getelementptr inbounds i8, ptr %.020.i, i64 24
  %3 = load ptr, ptr %2, align 8
  %.not15.i = icmp eq ptr %3, null
  br i1 %.not15.i, label %.critedge2.i, label %4

4:                                                ; preds = %.lr.ph.i
  %5 = load i8, ptr %3, align 8
  %.not16.i = icmp eq i8 %5, 1
  br i1 %.not16.i, label %.critedge2.i, label %.critedge.i

.critedge2.i:                                     ; preds = %4, %.lr.ph.i
  %6 = getelementptr inbounds i8, ptr %.020.i, i64 48
  %.0.i = load ptr, ptr %6, align 8
  %.not14.i = icmp eq ptr %.0.i, null
  br i1 %.not14.i, label %zend_get_executed_filename_ex.exit, label %.lr.ph.i

.critedge.i:                                      ; preds = %4
  %7 = getelementptr inbounds i8, ptr %3, i64 152
  %8 = load ptr, ptr %7, align 8
  br label %zend_get_executed_filename_ex.exit

zend_get_executed_filename_ex.exit:               ; preds = %.critedge2.i, %0, %.preheader.i, %.critedge.i
  %.011.i = phi ptr [ %8, %.critedge.i ], [ %1, %0 ], [ null, %.preheader.i ], [ null, %.critedge2.i ]
  %.not = icmp eq ptr %.011.i, null
  %9 = getelementptr inbounds i8, ptr %.011.i, i64 24
  %10 = select i1 %.not, ptr @.str.3, ptr %9
  ret ptr %10
}